target datalayout = "e-m:e-p270:32:32-p271:32:32-p272:64:64-i64:64-i128:128-f80:128-n8:16:32:64-S128"
target triple = "x86_64-pc-linux-gnu"

%struct.tm = type { i32, i32, i32, i32, i32, i32, i32, i32, i32, i64, ptr }

; Function Attrs: nounwind uwtable
define i64 @av_timegm(ptr noundef %0) #0 {
  %2 = alloca ptr, align 8
  %3 = alloca i64, align 8
  %4 = alloca i32, align 4
  %5 = alloca i32, align 4
  %6 = alloca i32, align 4
  store ptr %0, ptr %2, align 8, !tbaa !42
  call void @llvm.lifetime.start.p0(i64 8, ptr %3) #10
  call void @llvm.lifetime.start.p0(i64 4, ptr %4) #10
  %7 = load ptr, ptr %2, align 8, !tbaa !42
  %8 = getelementptr inbounds nuw %struct.tm, ptr %7, i32 0, i32 5
  %9 = load i32, ptr %8, align 4, !tbaa !50
  %10 = add nsw i32 %9, 1900
  store i32 %10, ptr %4, align 4, !tbaa !11
  call void @llvm.lifetime.start.p0(i64 4, ptr %5) #10
  %11 = load ptr, ptr %2, align 8, !tbaa !42
  %12 = getelementptr inbounds nuw %struct.tm, ptr %11, i32 0, i32 4
  %13 = load i32, ptr %12, align 8, !tbaa !51
  %14 = add nsw i32 %13, 1
  store i32 %14, ptr %5, align 4, !tbaa !11
  call void @llvm.lifetime.start.p0(i64 4, ptr %6) #10
  %15 = load ptr, ptr %2, align 8, !tbaa !42
  %16 = getelementptr inbounds nuw %struct.tm, ptr %15, i32 0, i32 3
  %17 = load i32, ptr %16, align 4, !tbaa !52
  store i32 %17, ptr %6, align 4, !tbaa !11
  %18 = load i32, ptr %5, align 4, !tbaa !11
  %19 = icmp slt i32 %18, 3
  br i1 %19, label %20, label %25

20:                                               ; preds = %1
  %21 = load i32, ptr %5, align 4, !tbaa !11
  %22 = add nsw i32 %21, 12
  store i32 %22, ptr %5, align 4, !tbaa !11
  %23 = load i32, ptr %4, align 4, !tbaa !11
  %24 = add nsw i32 %23, -1
  store i32 %24, ptr %4, align 4, !tbaa !11
  br label %25

25:                                               ; preds = %20, %1
  %26 = load i32, ptr %6, align 4, !tbaa !11
  %27 = load i32, ptr %5, align 4, !tbaa !11
  %28 = mul nsw i32 153, %27
  %29 = sub nsw i32 %28, 457
  %30 = sdiv i32 %29, 5
  %31 = add nsw i32 %26, %30
  %32 = load i32, ptr %4, align 4, !tbaa !11
  %33 = mul nsw i32 365, %32
  %34 = add nsw i32 %31, %33
  %35 = load i32, ptr %4, align 4, !tbaa !11
  %36 = sdiv i32 %35, 4
  %37 = add nsw i32 %34, %36
  %38 = load i32, ptr %4, align 4, !tbaa !11
  %39 = sdiv i32 %38, 100
  %40 = sub nsw i32 %37, %39
  %41 = load i32, ptr %4, align 4, !tbaa !11
  %42 = sdiv i32 %41, 400
  %43 = add nsw i32 %40, %42
  %44 = sub nsw i32 %43, 719469
  %45 = sext i32 %44 to i64
  %46 = mul nsw i64 86400, %45
  store i64 %46, ptr %3, align 8, !tbaa !34
  %47 = load ptr, ptr %2, align 8, !tbaa !42
  %48 = getelementptr inbounds nuw %struct.tm, ptr %47, i32 0, i32 2
  %49 = load i32, ptr %48, align 8, !tbaa !46
  %50 = mul nsw i32 3600, %49
  %51 = load ptr, ptr %2, align 8, !tbaa !42
  %52 = getelementptr inbounds nuw %struct.tm, ptr %51, i32 0, i32 1
  %53 = load i32, ptr %52, align 4, !tbaa !48
  %54 = mul nsw i32 60, %53
  %55 = add nsw i32 %50, %54
  %56 = load ptr, ptr %2, align 8, !tbaa !42
  %57 = getelementptr inbounds nuw %struct.tm, ptr %56, i32 0, i32 0
  %58 = load i32, ptr %57, align 8, !tbaa !49
  %59 = add nsw i32 %55, %58
  %60 = sext i32 %59 to i64
  %61 = load i64, ptr %3, align 8, !tbaa !34
  %62 = add nsw i64 %61, %60
  store i64 %62, ptr %3, align 8, !tbaa !34
  %63 = load i64, ptr %3, align 8, !tbaa !34
  call void @llvm.lifetime.end.p0(i64 4, ptr %6) #10
  call void @llvm.lifetime.end.p0(i64 4, ptr %5) #10
  call void @llvm.lifetime.end.p0(i64 4, ptr %4) #10
  call void @llvm.lifetime.end.p0(i64 8, ptr %3) #10
  ret i64 %63
}