; Function Attrs: mustprogress nofree norecurse nosync nounwind willreturn memory(argmem: read) uwtable
define range(i64 -185544734670848, 185482572462848) i64 @av_timegm(ptr noundef readonly captures(none) %0) local_unnamed_addr #10 {
  %2 = getelementptr inbounds nuw i8, ptr %0, i64 20
  %3 = load i32, ptr %2, align 4, !tbaa !37
  %4 = getelementptr inbounds nuw i8, ptr %0, i64 16
  %5 = load i32, ptr %4, align 8, !tbaa !38
  %6 = getelementptr inbounds nuw i8, ptr %0, i64 12
  %7 = load i32, ptr %6, align 4, !tbaa !39
  %8 = icmp slt i32 %5, 2
  %.016.v = select i1 %8, i32 13, i32 1
  %.016 = add nsw i32 %.016.v, %5
  %.0.v = select i1 %8, i32 1899, i32 1900
  %.0 = add nsw i32 %.0.v, %3
  %9 = mul nsw i32 %.016, 153
  %10 = add nsw i32 %9, -457
  %11 = sdiv i32 %10, 5
  %12 = mul nsw i32 %.0, 365
  %13 = sdiv i32 %.0, 4
  %.neg = sdiv i32 %.0, -100
  %14 = sdiv i32 %.0, 400
  %15 = add i32 %7, -719469
  %16 = add i32 %15, %12
  %17 = add i32 %16, %13
  %18 = add i32 %17, %.neg
  %19 = add i32 %18, %14
  %20 = add i32 %19, %11
  %21 = sext i32 %20 to i64
  %22 = mul nsw i64 %21, 86400
  %23 = getelementptr inbounds nuw i8, ptr %0, i64 8
  %24 = load i32, ptr %23, align 8, !tbaa !32
  %25 = mul nsw i32 %24, 3600
  %26 = getelementptr inbounds nuw i8, ptr %0, i64 4
  %27 = load i32, ptr %26, align 4, !tbaa !35
  %28 = mul nsw i32 %27, 60
  %29 = add nsw i32 %28, %25
  %30 = load i32, ptr %0, align 8, !tbaa !36
  %31 = add nsw i32 %29, %30
  %32 = sext i32 %31 to i64
  %33 = add nsw i64 %22, %32
  ret i64 %33
}